(dp0
S'thresh'
p1
F0.03676138656849088
sS'mat'
p2
(lp3
(lp4
F-8.37464164743233
aF-3.787489966946918
aF-3.227147170618878
aF-3.4183116981936172
aF-7.794823152179389
aF-4.931480066671144
aF-3.9446755504693303
aF-7.612501595385434
aF-3.425881757054163
aF-7.20703648727727
aF-4.409755152447117
aF-2.513448506361664
aF-3.2443203675336054
aF-1.5461615136323454
aF-7.430180038591479
aF-3.9336724771249996
aF-8.52879232725959
aF-2.1054100914904894
aF-2.4247434194044613
aF-2.1199889994790806
aF-4.238332886111198
aF-3.876420539787204
aF-4.621781863654988
aF-5.932294612063127
aF-3.2489784322761124
aF-7.229509343129329
aF-2.7992338162884045
aa(lp5
F-2.183757822994319
aF-4.682349925867573
aF-6.693323668269949
aF-7.128641739527795
aF-1.3603207437340221
aF-7.223951919332119
aF-7.223951919332119
aF-7.128641739527795
aF-2.805111311535521
aF-4.621262233887736
aF-7.128641739527795
aF-2.249289285694681
aF-6.818486811223955
aF-6.693323668269949
aF-2.117400568406037
aF-7.223951919332119
aF-7.223951919332119
aF-2.986951056708495
aF-4.110436610121745
aF-4.6361878841044115
aF-2.3821298320050257
aF-6.961587654864628
aF-7.223951919332119
aF-7.223951919332119
aF-2.0614542759266175
aF-7.223951919332119
aF-4.062705207300555
aa(lp6
F-2.280785517259101
aF-7.347170826459849
aF-3.4871431161500834
aF-6.499872966072645
aF-1.6259851149049636
aF-7.752635934568013
aF-7.752635934568013
aF-1.7401440202679557
aF-2.6576594920380066
aF-7.752635934568013
aF-3.2200364414147575
aF-3.2741634016258794
aF-7.4902716701005225
aF-7.4161636979468
aF-1.8064302938656462
aF-7.752635934568013
aF-5.928086642516967
aF-3.499864135751394
aF-5.928086642516967
aF-2.5787486463981537
aF-3.2994521055778034
aF-7.4161636979468
aF-7.752635934568013
aF-6.687925197575585
aF-5.164871899340305
aF-7.752635934568013
aF-3.8587768997675385
aa(lp7
F-3.0941234798033457
aF-6.4660064737967256
aF-7.276936690013055
aF-4.197322932478362
aF-1.9647164182960266
aF-6.838681759081899
aF-4.999669405003299
aF-6.7463084389508845
aF-2.4725058931740858
aF-7.228146525843623
aF-7.43945561951083
aF-4.409037787968948
aF-5.397471640365894
aF-6.661751050922821
aF-3.2338854221785045
aF-6.4660064737967256
aF-7.970083870573
aF-3.882428296501696
aF-3.1243232196669783
aF-6.717320902077632
aF-3.9941475394012014
aF-5.677549113432455
aF-5.352688037738921
aF-6.559096896862738
aF-4.700514931389281
aF-7.970083870573
aF-0.6161054910105308
aa(lp8
F-3.1551898837457357
aF-5.945721818120841
aF-3.752473389164261
aF-2.4933435822547296
aF-3.624657724761124
aF-4.9874668871476535
aF-5.2213220940567915
aF-6.431725788713018
aF-3.907288300168382
aF-8.339656689703114
aF-7.093124270958383
aF-3.4697838383156014
aF-3.759581371112056
aF-2.339641844279085
aF-5.8954210796460425
aF-4.814575755792578
aF-5.442064683833463
aF-1.9986841241700175
aF-2.393553409548807
aF-3.7658425722463957
aF-6.738952457237769
aF-4.454066941343124
aF-5.266560879535636
aF-4.382577189657586
aF-4.29584293612823
aF-8.5847791477361
aF-1.118456249002551
aa(lp9
F-3.175665484335646
aF-6.898183297598412
aF-7.134572075662643
aF-7.277672919303316
aF-2.78990122753253
aF-3.324951003852578
aF-7.540037183770807
aF-7.540037183770807
aF-2.5926967400468652
aF-7.540037183770807
aF-7.540037183770807
aF-4.193648038603647
aF-7.444727003966483
aF-7.357715626976852
aF-1.6117787125666179
aF-6.205036117038468
aF-7.540037183770807
aF-2.5998243539710972
aF-6.2317043641206284
aF-3.5735259930585914
aF-3.9846891222813934
aF-7.540037183770807
aF-7.540037183770807
aF-7.357715626976852
aF-5.930599271336707
aF-7.540037183770807
aF-0.8319530999177379
aa(lp10
F-2.4846439412615977
aF-6.019710496331761
aF-6.196641204490839
aF-5.382133166926627
aF-1.9967748492942172
aF-6.922578207873776
aF-4.214528006771565
aF-2.334215140202065
aF-2.810612044301855
aF-7.328043315981939
aF-7.328043315981939
aF-3.078120521941395
aF-5.71860540354784
aF-3.7528926271963465
aF-3.2641579612445475
aF-6.047109470519875
aF-7.065679051514449
aF-2.5953598096948887
aF-3.3502325700157907
aF-4.383604336815499
aF-3.3353624075363393
aF-6.922578207873776
aF-6.922578207873776
aF-5.273919582286394
aF-5.141992039243846
aF-7.328043315981939
aF-1.164518007789064
aa(lp11
F-2.1533485670187753
aF-6.701192257815149
aF-8.328648675751927
aF-7.507668123682096
aF-0.681209671785933
aF-6.965343832856735
aF-8.241637298762297
aF-8.241637298762297
aF-2.0947728524266247
aF-8.423958855556252
aF-8.423958855556252
aF-6.567660865190626
aF-5.955859324084632
aF-5.651370133316471
aF-2.5389665529587866
aF-7.591049732621148
aF-8.423958855556252
aF-4.326286503241477
aF-6.1518329700469145
aF-3.84410647755245
aF-4.106470742019941
aF-7.953955226310516
aF-7.430707082545968
aF-7.635501495191981
aF-5.645139583565834
aF-8.423958855556252
aF-2.2510064324028924
aa(lp12
F-4.020761507074747
aF-4.251137911968157
aF-2.891156687292823
aF-3.6817364396812438
aF-3.3182152961540465
aF-4.163709433825452
aF-3.578218981183683
aF-7.500511653249285
aF-3.5505093997559225
aF-8.044127099838267
aF-5.429167321802068
aF-3.2977467452986517
aF-3.2824281116179495
aF-1.3135731749555128
aF-2.8589162210627115
aF-4.880059511465061
aF-6.290107958593059
aF-3.165965556808398
aF-2.0684814589241753
aF-2.1148335083937777
aF-6.32932867174634
aF-3.579496936629175
aF-7.990059878567991
aF-4.948046852449994
aF-8.44959220794643
aF-5.5051532287799905
aF-3.419699097245761
aa(lp13
F-2.407419154309626
aF-4.995183189537334
aF-4.995183189537334
aF-4.995183189537334
aF-1.436982059065514
aF-4.995183189537334
aF-4.995183189537334
aF-4.995183189537334
aF-4.353329303364939
aF-4.995183189537334
aF-4.995183189537334
aF-4.995183189537334
aF-4.995183189537334
aF-4.995183189537334
aF-1.4061240707056086
aF-4.995183189537334
aF-4.995183189537334
aF-4.995183189537334
aF-4.995183189537334
aF-4.995183189537334
aF-1.3497332933507338
aF-4.995183189537334
aF-4.995183189537334
aF-4.995183189537334
aF-4.899873009733009
aF-4.995183189537334
aF-4.407396524635215
aa(lp14
F-4.074341914923254
aF-5.9520438139520335
aF-5.744404449173789
aF-5.877935841798312
aF-1.2321722588449668
aF-4.8534315252839235
aF-5.221156305409242
aF-5.425950718055255
aF-1.5102979445765297
aF-6.214408078419525
aF-6.03208652162557
aF-4.5096599861810995
aF-5.3389393410656245
aF-2.6034901657753
aF-4.47394190357902
aF-5.149697341427096
aF-6.214408078419525
aF-5.877935841798312
aF-2.2235738925670887
aF-5.425950718055255
aF-5.9520438139520335
aF-6.214408078419525
aF-5.149697341427096
aF-5.472470733690147
aF-4.625172873302944
aF-6.214408078419525
aF-1.6658082439198276
aa(lp15
F-2.108974536926461
aF-5.836067936392326
aF-5.626976138533767
aF-3.2020064539704394
aF-1.736504458294434
aF-4.589971659255148
aF-6.013749113629779
aF-7.199372779287518
aF-2.242905721664412
aF-7.987830139651789
aF-5.646024333504461
aF-1.8848242178108991
aF-5.4782308772734165
aF-6.92311940265936
aF-2.6672621641689322
aF-6.196070670423733
aF-7.892519959847464
aF-5.85959843380252
aF-3.1829897585351294
aF-4.36082608925594
aF-3.769794105087138
aF-4.789157022101107
aF-6.147280506254302
aF-5.847763976155518
aF-2.442652695172226
aF-7.725465875184297
aF-2.1020039245668034
aa(lp16
F-1.679801969852584
aF-3.440789780413885
aF-7.501232790960304
aF-7.191077862656465
aF-1.2054637292266586
aF-6.402620502292195
aF-7.596542970764629
aF-7.596542970764629
aF-2.463100247406827
aF-7.596542970764629
aF-7.596542970764629
aF-6.603291197754346
aF-3.594679261336694
aF-5.821590619852956
aF-2.3542669951002178
aF-3.152715935185301
aF-7.596542970764629
aF-5.529680211291653
aF-3.2924778775604597
aF-7.414221413970675
aF-3.2334443459762667
aF-7.334178706297139
aF-7.334178706297139
aF-7.126539341518894
aF-4.5009653622409225
aF-7.596542970764629
aF-2.06354881708871
aa(lp17
F-3.6463198396951406
aF-6.002972153959462
aF-2.9733753664527147
aF-1.8046012990926714
aF-2.6092097507848244
aF-5.24876471663827
aF-2.034778877064261
aF-6.674140427800632
aF-3.5583732276595543
aF-7.101584442627572
aF-5.221271576058071
aF-5.0361291429224755
aF-6.313127082263302
aF-4.393534241525361
aF-3.057753751526751
aF-7.38188640778173
aF-6.718592190371465
aF-5.754955337900112
aF-2.8958972930700972
aF-2.149834542940214
aF-4.650579344515252
aF-5.635247373834145
aF-6.631580813381836
aF-7.297329019753667
aF-4.3486316949046495
aF-8.51035165959952
aF-1.4372360372167776
aa(lp18
F-5.142453508356678
aF-4.398088111302532
aF-4.2065368120257745
aF-4.065086328302304
aF-5.095524076134695
aF-1.8981968144295158
aF-4.974245089039188
aF-5.538949946482083
aF-4.825912607442918
aF-6.296635648179599
aF-5.179154875207106
aF-3.34420860856447
aF-2.927699128735665
aF-1.8028759883426069
aF-3.858853883241969
aF-3.9109356484750464
aF-8.178007276097341
aF-1.9434740088678792
aF-3.6300690360643824
aF-3.058517577089003
aF-2.470897011348465
aF-4.431448710396727
aF-3.216037153982366
aF-6.36562851966655
aF-4.893811985108497
aF-8.385646640875585
aF-2.2088202914124206
aa(lp19
F-2.0672879109760003
aF-6.493055353210948
aF-6.917938547176214
aF-6.532276066364229
aF-1.6616694168716768
aF-7.112094561617171
aF-6.80671291206599
aF-4.241763554604453
aF-3.163601876407634
aF-7.448566798238384
aF-7.3532566184340595
aF-2.2396272428415642
aF-6.755419617678439
aF-7.04310169013022
aF-1.9695959319970902
aF-2.9042087516470505
aF-7.448566798238384
aF-1.7929246989101182
aF-4.530796066154105
aF-3.564943267331936
aF-3.0249184888736833
aF-7.3532566184340595
aF-6.493055353210948
aF-7.266245241444429
aF-5.2852437725778465
aF-7.448566798238384
aF-2.921358153720005
aa(lp20
F-4.987707789452551
aF-4.987707789452551
aF-4.987707789452551
aF-4.987707789452551
aF-4.892397609648226
aF-4.987707789452551
aF-4.987707789452551
aF-4.987707789452551
aF-4.987707789452551
aF-4.987707789452551
aF-4.987707789452551
aF-4.987707789452551
aF-4.987707789452551
aF-4.987707789452551
aF-4.987707789452551
aF-4.987707789452551
aF-4.987707789452551
aF-4.987707789452551
aF-4.987707789452551
aF-4.987707789452551
aF-0.21787098190922594
aF-4.987707789452551
aF-4.987707789452551
aF-4.987707789452551
aF-4.987707789452551
aF-4.987707789452551
aF-3.7067739439904868
aa(lp21
F-2.671790157767236
aF-5.488937726156687
aF-4.0440492007707425
aF-3.226559053640681
aF-1.5394006544292427
aF-4.465317974052033
aF-4.662259152972219
aF-6.25884892292847
aF-2.470316700762416
aF-8.163086375583216
aF-4.611828299345326
aF-4.2539246024361015
aF-3.6389713143518314
aF-3.9186811187853814
aF-2.418024868007578
aF-5.149654524929823
aF-7.46993919502327
aF-4.224282347477427
aF-2.6872207309938814
aF-2.9978923216703612
aF-4.229861162504466
aF-4.952818925251615
aF-5.620360154906389
aF-7.434847875212
aF-3.1345176136134834
aF-8.499558612204428
aF-1.7181605220988132
aa(lp22
F-3.3912195384688038
aF-6.1495562380013835
aF-4.196930146980634
aF-6.140166497651545
aF-2.106008569064558
aF-7.099423265409143
aF-6.623340590087025
aF-3.2031331311998965
aF-3.012422677442801
aF-8.32808868232545
aF-5.428500269324362
aF-5.086147584526254
aF-5.465887801395982
aF-7.006332842343131
aF-3.132357904552515
aF-3.741421967901919
aF-5.885741646956246
aF-7.0517952164198885
aF-3.304756557434788
aF-2.0397655460809783
aF-3.405677621644034
aF-6.623340590087025
aF-5.0796540552157055
aF-5.410317950241171
aF-6.094496460818356
aF-8.510410239119405
aF-0.839422172010635
aa(lp23
F-3.2911542022557656
aF-7.257665392967982
aF-5.731609089472932
aF-8.461638197293917
aF-2.421224768454072
aF-7.532102238669742
aF-8.034194182466978
aF-0.9868660148960474
aF-2.463529107467267
aF-8.684781748608128
aF-8.771793125597757
aF-4.269965291111255
aF-5.927941383336485
aF-7.026553672004595
aF-2.4139508590896575
aF-7.558770485751904
aF-8.604739040934591
aF-3.352465612887961
aF-3.564296033581193
aF-4.165714261673448
aF-4.014292096499394
aF-8.530631068780869
aF-4.761159607336629
aF-7.802392568409654
aF-4.123911821516616
aF-7.385498764477867
aF-1.7136605106708407
aa(lp24
F-3.6885355836023566
aF-3.5442566522542522
aF-2.9483773488511256
aF-3.880728888875465
aF-3.1792829055008247
aF-5.023143800201968
aF-3.3252030861915673
aF-7.523088327354508
aF-3.4517332833571066
aF-7.523088327354508
aF-5.762100516793208
aF-2.60377119179304
aF-3.1108411500377424
aF-2.1286346760398414
aF-5.202484728857785
aF-2.720558707207922
aF-7.618398507158833
aF-1.8460232410370208
aF-1.9112882424099578
aF-2.1398450903078636
aF-7.28192627053762
aF-6.486996395667733
aF-7.523088327354508
aF-5.9506916866007575
aF-6.519786218490724
aF-6.976544620986439
aF-4.391554512641456
aa(lp25
F-2.479783485873112
aF-6.450075399425233
aF-6.295924719597975
aF-6.295924719597975
aF-0.6135604623153553
aF-6.226931848111024
aF-6.370032691751697
aF-6.295924719597975
aF-1.5102202873900248
aF-6.370032691751697
aF-6.632396956219188
aF-6.295924719597975
aF-6.044610291317069
aF-6.370032691751697
aF-2.8146846302622834
aF-6.044610291317069
aF-6.5370867764148635
aF-5.939249775659243
aF-6.226931848111024
aF-5.6768855111917516
aF-4.9096303584780845
aF-6.5370867764148635
aF-6.295924719597975
aF-6.632396956219188
aF-5.150792415294973
aF-6.5370867764148635
aF-3.14196844082909
aa(lp26
F-1.7745000885643982
aF-5.850422023233463
aF-6.754878297460615
aF-5.676068636088686
aF-1.7620476279978663
aF-5.977173728872607
aF-6.543569203793409
aF-1.7050222902110783
aF-1.6361802596626434
aF-7.285506548522785
aF-4.042914197037269
aF-4.279823944115627
aF-5.899212187402895
aF-3.334262829941358
aF-2.443684461195692
aF-6.949034311901572
aF-7.285506548522785
aF-3.7950780331326874
aF-3.9045118741781497
aF-6.4525974255876815
aF-6.949034311901572
aF-7.103184991728831
aF-6.06173111690067
aF-7.1901963687184605
aF-5.737944039806773
aF-7.285506548522785
aF-2.8323227195325757
aa(lp27
F-3.798327987969472
aF-5.444579873526289
aF-2.6997156993013625
aF-5.50911839466386
aF-2.353537420167973
aF-4.959072057744588
aF-5.652219238304533
aF-2.8990486019218538
aF-1.7325333601308182
aF-5.914583502772024
aF-5.914583502772024
aF-3.717358925435805
aF-5.578111266150811
aF-5.8192733229677
aF-3.3118938173276407
aF-3.099174783349315
aF-5.578111266150811
aF-5.50911839466386
aF-5.444579873526289
aF-2.5752615248279564
aF-5.7322619459780695
aF-2.415050220389007
aF-5.8192733229677
aF-1.882114344268011
aF-5.8192733229677
aF-5.914583502772024
aF-2.2561632561427967
aa(lp28
F-4.131550725169717
aF-5.630987742389489
aF-5.7645191350140115
aF-4.8200575261731595
aF-2.7928844130390806
aF-5.652041151587321
aF-4.958893971027376
aF-5.630987742389489
aF-3.984735856832672
aF-7.1996036603033335
aF-6.134892923310906
aF-4.848228403139856
aF-4.525455010876805
aF-3.957011308817817
aF-3.3907214137947013
aF-5.239508876256064
aF-7.1996036603033335
aF-4.626991430096228
aF-2.7953264166946323
aF-4.969589260144123
aF-6.863131423682121
aF-6.036452850497653
aF-6.169984243122175
aF-5.359054026905847
aF-6.937239395835843
aF-7.1996036603033335
aF-0.34958343197243513
aa(lp29
F-1.8235613123889265
aF-4.1059436980654525
aF-4.1059436980654525
aF-4.1059436980654525
aF-1.1881729659811735
aF-4.1059436980654525
aF-4.1059436980654525
aF-4.1059436980654525
aF-3.2730345751303487
aF-4.1059436980654525
aF-4.1059436980654525
aF-3.8435794335979616
aF-4.1059436980654525
aF-3.4127965175055075
aF-3.3640063533360753
aF-4.1059436980654525
aF-4.1059436980654525
aF-4.1059436980654525
aF-3.076324280884294
aF-4.1059436980654525
aF-3.923622141271498
aF-4.1059436980654525
aF-4.1059436980654525
aF-4.1059436980654525
aF-4.1059436980654525
aF-3.575315447003282
aF-3.4127965175055075
aa(lp30
F-2.1768597661868427
aF-3.0651250650622694
aF-3.1553055670465957
aF-3.688552365742646
aF-3.757233823929733
aF-3.3036459846555184
aF-4.115318315933735
aF-3.0983998539471416
aF-2.8457287857503633
aF-5.304796332645746
aF-5.001084883264414
aF-3.957673905381061
aF-3.319765984735395
aF-4.078513287314845
aF-2.564507207880584
aF-3.064346147717942
aF-6.012685794942895
aF-3.8746601510294356
aF-2.8899719977469274
aF-1.804342392479825
aF-4.498756101723608
aF-4.773450978648579
aF-2.92299438885156
aF-6.361611492635394
aF-5.512811002363655
aF-8.718263806899715
aF-2.7724554510994492
aas.